; ModuleID = '60/396.c'
source_filename = "60/396.c"
target datalayout = "e-m:e-p270:32:32-p271:32:32-p272:64:64-i64:64-f80:128-n8:16:32:64-S128"
target triple = "x86_64-pc-linux-gnu"

@.str = private unnamed_addr constant [3 x i8] c"%d\00", align 1
@.str.1 = private unnamed_addr constant [7 x i8] c"%d %d\0A\00", align 1
@.str.2 = private unnamed_addr constant [6 x i8] c"empty\00", align 1

; Function Attrs: noinline nounwind uwtable
define dso_local i32 @main() #0 {
  %1 = alloca i32, align 4
  %2 = alloca i32, align 4
  %3 = alloca i32, align 4
  %4 = alloca i32, align 4
  %5 = alloca i32, align 4
  %6 = alloca i32, align 4
  %7 = alloca i32, align 4
  %8 = alloca i32*, align 8
  store i32 0, i32* %1, align 4
  store i32 0, i32* %6, align 4
  %9 = call i32 (i8*, ...) @__isoc99_scanf(i8* getelementptr inbounds ([3 x i8], [3 x i8]* @.str, i64 0, i64 0), i32* %2)
  %10 = load i32, i32* %2, align 4
  %11 = sext i32 %10 to i64
  %12 = mul i64 %11, 4
  %13 = call noalias i8* @malloc(i64 %12) #3
  %14 = bitcast i8* %13 to i32*
  store i32* %14, i32** %8, align 8
  store i32 2, i32* %3, align 4
  br label %15

15:                                               ; preds = %56, %0
  %16 = load i32, i32* %3, align 4
  %17 = load i32, i32* %2, align 4
  %18 = icmp sle i32 %16, %17
  br i1 %18, label %19, label %59

19:                                               ; preds = %15
  store i32 1, i32* %4, align 4
  %20 = load i32, i32* %3, align 4
  %21 = sitofp i32 %20 to float
  %22 = fpext float %21 to double
  %23 = call double @sqrt(double %22) #3
  %24 = fptosi double %23 to i32
  store i32 %24, i32* %7, align 4
  store i32 2, i32* %5, align 4
  br label %25

25:                                               ; preds = %41, %19
  %26 = load i32, i32* %5, align 4
  %27 = load i32, i32* %7, align 4
  %28 = icmp sle i32 %26, %27
  br i1 %28, label %29, label %32

29:                                               ; preds = %25
  %30 = load i32, i32* %4, align 4
  %31 = icmp eq i32 %30, 1
  br label %32

32:                                               ; preds = %29, %25
  %33 = phi i1 [ false, %25 ], [ %31, %29 ]
  br i1 %33, label %34, label %44

34:                                               ; preds = %32
  %35 = load i32, i32* %3, align 4
  %36 = load i32, i32* %5, align 4
  %37 = srem i32 %35, %36
  %38 = icmp eq i32 %37, 0
  br i1 %38, label %39, label %40

39:                                               ; preds = %34
  store i32 0, i32* %4, align 4
  br label %40

40:                                               ; preds = %39, %34
  br label %41

41:                                               ; preds = %40
  %42 = load i32, i32* %5, align 4
  %43 = add nsw i32 %42, 1
  store i32 %43, i32* %5, align 4
  br label %25

44:                                               ; preds = %32
  %45 = load i32, i32* %4, align 4
  %46 = icmp eq i32 %45, 1
  br i1 %46, label %47, label %55

47:                                               ; preds = %44
  %48 = load i32, i32* %3, align 4
  %49 = load i32*, i32** %8, align 8
  %50 = load i32, i32* %6, align 4
  %51 = sext i32 %50 to i64
  %52 = getelementptr inbounds i32, i32* %49, i64 %51
  store i32 %48, i32* %52, align 4
  %53 = load i32, i32* %6, align 4
  %54 = add nsw i32 %53, 1
  store i32 %54, i32* %6, align 4
  br label %55

55:                                               ; preds = %47, %44
  br label %56

56:                                               ; preds = %55
  %57 = load i32, i32* %3, align 4
  %58 = add nsw i32 %57, 1
  store i32 %58, i32* %3, align 4
  br label %15

59:                                               ; preds = %15
  store i32 0, i32* %4, align 4
  store i32 0, i32* %3, align 4
  br label %60

60:                                               ; preds = %93, %59
  %61 = load i32, i32* %3, align 4
  %62 = load i32, i32* %6, align 4
  %63 = sub nsw i32 %62, 1
  %64 = icmp slt i32 %61, %63
  br i1 %64, label %65, label %96

65:                                               ; preds = %60
  %66 = load i32*, i32** %8, align 8
  %67 = load i32, i32* %3, align 4
  %68 = sext i32 %67 to i64
  %69 = getelementptr inbounds i32, i32* %66, i64 %68
  %70 = load i32, i32* %69, align 4
  %71 = load i32*, i32** %8, align 8
  %72 = load i32, i32* %3, align 4
  %73 = sext i32 %72 to i64
  %74 = getelementptr inbounds i32, i32* %71, i64 %73
  %75 = getelementptr inbounds i32, i32* %74, i64 1
  %76 = load i32, i32* %75, align 4
  %77 = sub nsw i32 %76, 2
  %78 = icmp eq i32 %70, %77
  br i1 %78, label %79, label %92

79:                                               ; preds = %65
  store i32 1, i32* %4, align 4
  %80 = load i32*, i32** %8, align 8
  %81 = load i32, i32* %3, align 4
  %82 = sext i32 %81 to i64
  %83 = getelementptr inbounds i32, i32* %80, i64 %82
  %84 = load i32, i32* %83, align 4
  %85 = load i32*, i32** %8, align 8
  %86 = load i32, i32* %3, align 4
  %87 = sext i32 %86 to i64
  %88 = getelementptr inbounds i32, i32* %85, i64 %87
  %89 = getelementptr inbounds i32, i32* %88, i64 1
  %90 = load i32, i32* %89, align 4
  %91 = call i32 (i8*, ...) @printf(i8* getelementptr inbounds ([7 x i8], [7 x i8]* @.str.1, i64 0, i64 0), i32 %84, i32 %90)
  br label %92

92:                                               ; preds = %79, %65
  br label %93

93:                                               ; preds = %92
  %94 = load i32, i32* %3, align 4
  %95 = add nsw i32 %94, 1
  store i32 %95, i32* %3, align 4
  br label %60

96:                                               ; preds = %60
  %97 = load i32, i32* %4, align 4
  %98 = icmp eq i32 %97, 0
  br i1 %98, label %99, label %101

99:                                               ; preds = %96
  %100 = call i32 (i8*, ...) @printf(i8* getelementptr inbounds ([6 x i8], [6 x i8]* @.str.2, i64 0, i64 0))
  br label %101

101:                                              ; preds = %99, %96
  %102 = load i32, i32* %1, align 4
  ret i32 %102
}

declare dso_local i32 @__isoc99_scanf(i8*, ...) #1

; Function Attrs: nounwind
declare dso_local noalias i8* @malloc(i64) #2

; Function Attrs: nounwind
declare dso_local double @sqrt(double) #2

declare dso_local i32 @printf(i8*, ...) #1


!llvm.module.flags = !{!0}
!llvm.ident = !{!1}

!0 = !{i32 1, !"wchar_size", i32 4}
!1 = !{!"clang version 10.0.0-4ubuntu1 "}
