; ModuleID = 'source-C-CXX/59/396.c'
source_filename = "source-C-CXX/59/396.c"
target datalayout = "e-m:e-p270:32:32-p271:32:32-p272:64:64-i64:64-f80:128-n8:16:32:64-S128"
target triple = "x86_64-pc-linux-gnu"

@.str = private unnamed_addr constant [3 x i8] c"%d\00", align 1
@.str.1 = private unnamed_addr constant [7 x i8] c"%d %d\0A\00", align 1
@.str.2 = private unnamed_addr constant [6 x i8] c"empty\00", align 1

; Function Attrs: nofree nounwind sspstrong uwtable
define dso_local i32 @main() local_unnamed_addr #0 {
  %1 = alloca i32, align 4
  %2 = bitcast i32* %1 to i8*
  call void @llvm.lifetime.start.p0i8(i64 4, i8* nonnull %2) #5
  %3 = call i32 (i8*, ...) @__isoc99_scanf(i8* getelementptr inbounds ([3 x i8], [3 x i8]* @.str, i64 0, i64 0), i32* nonnull %1)
  %4 = load i32, i32* %1, align 4, !tbaa !5
  %5 = sext i32 %4 to i64
  %6 = shl nsw i64 %5, 2
  %7 = call noalias align 16 i8* @malloc(i64 %6) #5
  %8 = bitcast i8* %7 to i32*
  %9 = icmp slt i32 %4, 2
  br i1 %9, label %57, label %15

10:                                               ; preds = %35
  %11 = icmp sgt i32 %36, 1
  br i1 %11, label %12, label %57

12:                                               ; preds = %10
  %13 = add nsw i32 %36, -1
  %14 = zext i32 %13 to i64
  br label %40

15:                                               ; preds = %0, %35
  %16 = phi i32 [ %37, %35 ], [ 2, %0 ]
  %17 = phi i32 [ %36, %35 ], [ 0, %0 ]
  %18 = sitofp i32 %16 to float
  %19 = fpext float %18 to double
  %20 = call double @sqrt(double %19) #5
  %21 = fptosi double %20 to i32
  %22 = icmp sgt i32 %21, 1
  br i1 %22, label %23, label %31

23:                                               ; preds = %15, %23
  %24 = phi i32 [ %27, %23 ], [ 2, %15 ]
  %25 = urem i32 %16, %24
  %26 = icmp ne i32 %25, 0
  %27 = add nuw nsw i32 %24, 1
  %28 = icmp slt i32 %24, %21
  %29 = and i1 %28, %26
  br i1 %29, label %23, label %30, !llvm.loop !9

30:                                               ; preds = %23
  br i1 %26, label %31, label %35

31:                                               ; preds = %15, %30
  %32 = sext i32 %17 to i64
  %33 = getelementptr inbounds i32, i32* %8, i64 %32
  store i32 %16, i32* %33, align 4, !tbaa !5
  %34 = add nsw i32 %17, 1
  br label %35

35:                                               ; preds = %30, %31
  %36 = phi i32 [ %34, %31 ], [ %17, %30 ]
  %37 = add nuw nsw i32 %16, 1
  %38 = load i32, i32* %1, align 4, !tbaa !5
  %39 = icmp slt i32 %16, %38
  br i1 %39, label %15, label %10, !llvm.loop !11

40:                                               ; preds = %12, %51
  %41 = phi i64 [ 0, %12 ], [ %53, %51 ]
  %42 = phi i32 [ 0, %12 ], [ %52, %51 ]
  %43 = getelementptr inbounds i32, i32* %8, i64 %41
  %44 = load i32, i32* %43, align 4, !tbaa !5
  %45 = getelementptr inbounds i32, i32* %43, i64 1
  %46 = load i32, i32* %45, align 4, !tbaa !5
  %47 = add nsw i32 %46, -2
  %48 = icmp eq i32 %44, %47
  br i1 %48, label %49, label %51

49:                                               ; preds = %40
  %50 = call i32 (i8*, ...) @printf(i8* nonnull dereferenceable(1) getelementptr inbounds ([7 x i8], [7 x i8]* @.str.1, i64 0, i64 0), i32 %44, i32 %46)
  br label %51

51:                                               ; preds = %40, %49
  %52 = phi i32 [ 1, %49 ], [ %42, %40 ]
  %53 = add nuw nsw i64 %41, 1
  %54 = icmp eq i64 %53, %14
  br i1 %54, label %55, label %40, !llvm.loop !12

55:                                               ; preds = %51
  %56 = icmp eq i32 %52, 0
  br i1 %56, label %57, label %59

57:                                               ; preds = %0, %10, %55
  %58 = call i32 (i8*, ...) @printf(i8* nonnull dereferenceable(1) getelementptr inbounds ([6 x i8], [6 x i8]* @.str.2, i64 0, i64 0))
  br label %59

59:                                               ; preds = %57, %55
  call void @llvm.lifetime.end.p0i8(i64 4, i8* nonnull %2) #5
  ret i32 0
}

; Function Attrs: argmemonly mustprogress nofree nosync nounwind willreturn
declare void @llvm.lifetime.start.p0i8(i64 immarg, i8* nocapture) #1

; Function Attrs: nofree nounwind
declare noundef i32 @__isoc99_scanf(i8* nocapture noundef readonly, ...) local_unnamed_addr #2

; Function Attrs: inaccessiblememonly mustprogress nofree nounwind willreturn
declare noalias noundef align 16 i8* @malloc(i64 noundef) local_unnamed_addr #3

; Function Attrs: mustprogress nofree nounwind willreturn
declare double @sqrt(double) local_unnamed_addr #4

; Function Attrs: nofree nounwind
declare noundef i32 @printf(i8* nocapture noundef readonly, ...) local_unnamed_addr #2

; Function Attrs: argmemonly mustprogress nofree nosync nounwind willreturn
declare void @llvm.lifetime.end.p0i8(i64 immarg, i8* nocapture) #1


!llvm.module.flags = !{!0, !1, !2, !3}
!llvm.ident = !{!4}

!0 = !{i32 1, !"wchar_size", i32 4}
!1 = !{i32 7, !"PIC Level", i32 2}
!2 = !{i32 7, !"PIE Level", i32 2}
!3 = !{i32 7, !"uwtable", i32 1}
!4 = !{!"clang version 13.0.0"}
!5 = !{!6, !6, i64 0}
!6 = !{!"int", !7, i64 0}
!7 = !{!"omnipotent char", !8, i64 0}
!8 = !{!"Simple C/C++ TBAA"}
!9 = distinct !{!9, !10}
!10 = !{!"llvm.loop.mustprogress"}
!11 = distinct !{!11, !10}
!12 = distinct !{!12, !10}
